; ModuleID = '61/708.c'
source_filename = "61/708.c"
target datalayout = "e-m:e-p270:32:32-p271:32:32-p272:64:64-i64:64-f80:128-n8:16:32:64-S128"
target triple = "x86_64-pc-linux-gnu"

@.str = private unnamed_addr constant [3 x i8] c"%d\00", align 1
@.str.1 = private unnamed_addr constant [4 x i8] c"%d\0A\00", align 1

; Function Attrs: noinline nounwind uwtable
define dso_local i32 @main(i32 %0, i8** %1) #0 {
  %3 = alloca i32, align 4
  %4 = alloca i32, align 4
  %5 = alloca i8**, align 8
  %6 = alloca [100 x i32], align 16
  %7 = alloca i32, align 4
  %8 = alloca i32, align 4
  %9 = alloca [100 x i32], align 16
  %10 = alloca i32, align 4
  %11 = alloca i32, align 4
  %12 = alloca i32, align 4
  store i32 0, i32* %3, align 4
  store i32 %0, i32* %4, align 4
  store i8** %1, i8*** %5, align 8
  store i32 0, i32* %8, align 4
  %13 = call i32 (i8*, ...) @__isoc99_scanf(i8* getelementptr inbounds ([3 x i8], [3 x i8]* @.str, i64 0, i64 0), i32* %7)
  store i32 0, i32* %10, align 4
  br label %14

14:                                               ; preds = %23, %2
  %15 = load i32, i32* %10, align 4
  %16 = load i32, i32* %7, align 4
  %17 = icmp slt i32 %15, %16
  br i1 %17, label %18, label %26

18:                                               ; preds = %14
  %19 = load i32, i32* %10, align 4
  %20 = sext i32 %19 to i64
  %21 = getelementptr inbounds [100 x i32], [100 x i32]* %9, i64 0, i64 %20
  %22 = call i32 (i8*, ...) @__isoc99_scanf(i8* getelementptr inbounds ([3 x i8], [3 x i8]* @.str, i64 0, i64 0), i32* %21)
  br label %23

23:                                               ; preds = %18
  %24 = load i32, i32* %10, align 4
  %25 = add nsw i32 %24, 1
  store i32 %25, i32* %10, align 4
  br label %14

26:                                               ; preds = %14
  store i32 0, i32* %11, align 4
  br label %27

27:                                               ; preds = %75, %26
  %28 = load i32, i32* %11, align 4
  %29 = load i32, i32* %7, align 4
  %30 = icmp slt i32 %28, %29
  br i1 %30, label %31, label %78

31:                                               ; preds = %27
  store i32 0, i32* %12, align 4
  br label %32

32:                                               ; preds = %69, %31
  %33 = load i32, i32* %12, align 4
  %34 = load i32, i32* %11, align 4
  %35 = sext i32 %34 to i64
  %36 = getelementptr inbounds [100 x i32], [100 x i32]* %9, i64 0, i64 %35
  %37 = load i32, i32* %36, align 4
  %38 = icmp slt i32 %33, %37
  br i1 %38, label %39, label %72

39:                                               ; preds = %32
  %40 = load i32, i32* %12, align 4
  %41 = icmp sle i32 %40, 1
  br i1 %41, label %42, label %46

42:                                               ; preds = %39
  %43 = load i32, i32* %12, align 4
  %44 = sext i32 %43 to i64
  %45 = getelementptr inbounds [100 x i32], [100 x i32]* %6, i64 0, i64 %44
  store i32 1, i32* %45, align 4
  br label %46

46:                                               ; preds = %42, %39
  %47 = load i32, i32* %12, align 4
  %48 = icmp sge i32 %47, 2
  br i1 %48, label %49, label %64

49:                                               ; preds = %46
  %50 = load i32, i32* %12, align 4
  %51 = sub nsw i32 %50, 1
  %52 = sext i32 %51 to i64
  %53 = getelementptr inbounds [100 x i32], [100 x i32]* %6, i64 0, i64 %52
  %54 = load i32, i32* %53, align 4
  %55 = load i32, i32* %12, align 4
  %56 = sub nsw i32 %55, 2
  %57 = sext i32 %56 to i64
  %58 = getelementptr inbounds [100 x i32], [100 x i32]* %6, i64 0, i64 %57
  %59 = load i32, i32* %58, align 4
  %60 = add nsw i32 %54, %59
  %61 = load i32, i32* %12, align 4
  %62 = sext i32 %61 to i64
  %63 = getelementptr inbounds [100 x i32], [100 x i32]* %6, i64 0, i64 %62
  store i32 %60, i32* %63, align 4
  br label %64

64:                                               ; preds = %49, %46
  %65 = load i32, i32* %12, align 4
  %66 = sext i32 %65 to i64
  %67 = getelementptr inbounds [100 x i32], [100 x i32]* %6, i64 0, i64 %66
  %68 = load i32, i32* %67, align 4
  store i32 %68, i32* %8, align 4
  br label %69

69:                                               ; preds = %64
  %70 = load i32, i32* %12, align 4
  %71 = add nsw i32 %70, 1
  store i32 %71, i32* %12, align 4
  br label %32

72:                                               ; preds = %32
  %73 = load i32, i32* %8, align 4
  %74 = call i32 (i8*, ...) @printf(i8* getelementptr inbounds ([4 x i8], [4 x i8]* @.str.1, i64 0, i64 0), i32 %73)
  br label %75

75:                                               ; preds = %72
  %76 = load i32, i32* %11, align 4
  %77 = add nsw i32 %76, 1
  store i32 %77, i32* %11, align 4
  br label %27

78:                                               ; preds = %27
  ret i32 0
}

declare dso_local i32 @__isoc99_scanf(i8*, ...) #1

declare dso_local i32 @printf(i8*, ...) #1


!llvm.module.flags = !{!0}
!llvm.ident = !{!1}

!0 = !{i32 1, !"wchar_size", i32 4}
!1 = !{!"clang version 10.0.0-4ubuntu1 "}
